target datalayout = "e-m:e-p270:32:32-p271:32:32-p272:64:64-i64:64-i128:128-f80:128-n8:16:32:64-S128"
target triple = "x86_64-pc-linux-gnu"

%"class.mitsuba::ZStream" = type <{ %"class.mitsuba::Stream", %"class.mitsuba::ref", %"class.std::__1::unique_ptr", %"class.std::__1::unique_ptr", [32768 x i8], [32768 x i8], i8, [7 x i8] }>
%"class.mitsuba::Stream" = type { %"class.mitsuba::Object.base", i32 }
%"class.mitsuba::Object.base" = type <{ ptr, %"struct.std::__1::atomic" }>
%"struct.std::__1::atomic" = type { %"struct.std::__1::__atomic_base" }
%"struct.std::__1::__atomic_base" = type { %"struct.std::__1::__atomic_base.0" }
%"struct.std::__1::__atomic_base.0" = type { %"struct.std::__1::__cxx_atomic_impl" }
%"struct.std::__1::__cxx_atomic_impl" = type { %"struct.std::__1::__cxx_atomic_base_impl" }
%"struct.std::__1::__cxx_atomic_base_impl" = type { i32 }
%"class.mitsuba::ref" = type { ptr }
%"class.std::__1::unique_ptr" = type { %"class.std::__1::__compressed_pair" }
%"class.std::__1::__compressed_pair" = type { %"struct.std::__1::__compressed_pair_elem" }
%"struct.std::__1::__compressed_pair_elem" = type { ptr }

; Function Attrs: mustprogress nounwind uwtable
define linkonce_odr hidden noundef nonnull align 1 dereferenceable(1) ptr @_ZNSt3__122__compressed_pair_elemINS_14default_deleteI10z_stream_sEELi1ELb1EE5__getB8ne190000Ev(ptr noundef nonnull align 1 dereferenceable(1) %0) #4 comdat align 2 {
  %2 = alloca ptr, align 8
  store ptr %0, ptr %2, align 8
  %3 = load ptr, ptr %2, align 8
  ret ptr %3
}

; Function Attrs: mustprogress nounwind uwtable
define linkonce_odr hidden noundef nonnull align 8 dereferenceable(8) ptr @_ZNSt3__122__compressed_pair_elemIP10z_stream_sLi0ELb0EE5__getB8ne190000Ev(ptr noundef nonnull align 8 dereferenceable(8) %0) #4 comdat align 2 {
  %2 = alloca ptr, align 8
  store ptr %0, ptr %2, align 8
  %3 = load ptr, ptr %2, align 8
  %4 = getelementptr inbounds %"struct.std::__1::__compressed_pair_elem", ptr %3, i32 0, i32 0
  ret ptr %4
}

; Function Attrs: mustprogress nounwind uwtable
define linkonce_odr hidden void @_ZNKSt3__114default_deleteI10z_stream_sEclB8ne190000EPS1_(ptr noundef nonnull align 1 dereferenceable(1) %0, ptr noundef %1) #4 comdat align 2 {
  %3 = alloca ptr, align 8
  %4 = alloca ptr, align 8
  store ptr %0, ptr %3, align 8
  store ptr %1, ptr %4, align 8
  %5 = load ptr, ptr %4, align 8
  %6 = icmp eq ptr %5, null
  br i1 %6, label %8, label %7

7:                                                ; preds = %2
  call void @_ZdlPv(ptr noundef %5) #20
  br label %8

8:                                                ; preds = %7, %2
  ret void
}

; Function Attrs: mustprogress nounwind uwtable
define linkonce_odr hidden noundef nonnull align 1 dereferenceable(1) ptr @_ZNSt3__117__compressed_pairIP10z_stream_sNS_14default_deleteIS1_EEE6secondB8ne190000Ev(ptr noundef nonnull align 8 dereferenceable(8) %0) #4 comdat align 2 {
  %2 = alloca ptr, align 8
  store ptr %0, ptr %2, align 8
  %3 = load ptr, ptr %2, align 8
  %4 = call noundef nonnull align 1 dereferenceable(1) ptr @_ZNSt3__122__compressed_pair_elemINS_14default_deleteI10z_stream_sEELi1ELb1EE5__getB8ne190000Ev(ptr noundef nonnull align 1 dereferenceable(1) %3) #17
  ret ptr %4
}

; Function Attrs: mustprogress nounwind uwtable
define linkonce_odr hidden noundef nonnull align 8 dereferenceable(8) ptr @_ZNSt3__117__compressed_pairIP10z_stream_sNS_14default_deleteIS1_EEE5firstB8ne190000Ev(ptr noundef nonnull align 8 dereferenceable(8) %0) #4 comdat align 2 {
  %2 = alloca ptr, align 8
  store ptr %0, ptr %2, align 8
  %3 = load ptr, ptr %2, align 8
  %4 = call noundef nonnull align 8 dereferenceable(8) ptr @_ZNSt3__122__compressed_pair_elemIP10z_stream_sLi0ELb0EE5__getB8ne190000Ev(ptr noundef nonnull align 8 dereferenceable(8) %3) #17
  ret ptr %4
}

; Function Attrs: mustprogress nounwind uwtable
define linkonce_odr hidden void @_ZNSt3__110unique_ptrI10z_stream_sNS_14default_deleteIS1_EEE5resetB8ne190000EPS1_(ptr noundef nonnull align 8 dereferenceable(8) %0, ptr noundef %1) #4 comdat align 2 {
  %3 = alloca ptr, align 8
  %4 = alloca ptr, align 8
  %5 = alloca ptr, align 8
  store ptr %0, ptr %3, align 8
  store ptr %1, ptr %4, align 8
  %6 = load ptr, ptr %3, align 8
  %7 = getelementptr inbounds %"class.std::__1::unique_ptr", ptr %6, i32 0, i32 0
  %8 = call noundef nonnull align 8 dereferenceable(8) ptr @_ZNSt3__117__compressed_pairIP10z_stream_sNS_14default_deleteIS1_EEE5firstB8ne190000Ev(ptr noundef nonnull align 8 dereferenceable(8) %7) #17
  %9 = load ptr, ptr %8, align 8
  store ptr %9, ptr %5, align 8
  %10 = load ptr, ptr %4, align 8
  %11 = getelementptr inbounds %"class.std::__1::unique_ptr", ptr %6, i32 0, i32 0
  %12 = call noundef nonnull align 8 dereferenceable(8) ptr @_ZNSt3__117__compressed_pairIP10z_stream_sNS_14default_deleteIS1_EEE5firstB8ne190000Ev(ptr noundef nonnull align 8 dereferenceable(8) %11) #17
  store ptr %10, ptr %12, align 8
  %13 = load ptr, ptr %5, align 8
  %14 = icmp ne ptr %13, null
  br i1 %14, label %15, label %19

15:                                               ; preds = %2
  %16 = getelementptr inbounds %"class.std::__1::unique_ptr", ptr %6, i32 0, i32 0
  %17 = call noundef nonnull align 1 dereferenceable(1) ptr @_ZNSt3__117__compressed_pairIP10z_stream_sNS_14default_deleteIS1_EEE6secondB8ne190000Ev(ptr noundef nonnull align 8 dereferenceable(8) %16) #17
  %18 = load ptr, ptr %5, align 8
  call void @_ZNKSt3__114default_deleteI10z_stream_sEclB8ne190000EPS1_(ptr noundef nonnull align 1 dereferenceable(1) %17, ptr noundef %18) #17
  br label %19

19:                                               ; preds = %15, %2
  ret void
}

; Function Attrs: mustprogress nounwind uwtable
define linkonce_odr hidden void @_ZN7mitsuba3refINS_6StreamEED2Ev(ptr noundef nonnull align 8 dereferenceable(8) %0) unnamed_addr #4 comdat align 2 {
  %2 = alloca ptr, align 8
  store ptr %0, ptr %2, align 8
  %3 = load ptr, ptr %2, align 8
  %4 = getelementptr inbounds %"class.mitsuba::ref", ptr %3, i32 0, i32 0
  %5 = load ptr, ptr %4, align 8
  %6 = icmp ne ptr %5, null
  br i1 %6, label %7, label %10

7:                                                ; preds = %1
  %8 = getelementptr inbounds %"class.mitsuba::ref", ptr %3, i32 0, i32 0
  %9 = load ptr, ptr %8, align 8
  call void @_ZNK7mitsuba6Object7dec_refEb(ptr noundef nonnull align 8 dereferenceable(12) %9, i1 noundef zeroext true) #17
  br label %10

10:                                               ; preds = %7, %1
  ret void
}

; Function Attrs: mustprogress nounwind uwtable
define linkonce_odr hidden void @_ZNSt3__110unique_ptrI10z_stream_sNS_14default_deleteIS1_EEED2B8ne190000Ev(ptr noundef nonnull align 8 dereferenceable(8) %0) unnamed_addr #4 comdat align 2 {
  %2 = alloca ptr, align 8
  store ptr %0, ptr %2, align 8
  %3 = load ptr, ptr %2, align 8
  call void @_ZNSt3__110unique_ptrI10z_stream_sNS_14default_deleteIS1_EEE5resetB8ne190000EPS1_(ptr noundef nonnull align 8 dereferenceable(8) %3, ptr noundef null) #17
  ret void
}

; Function Attrs: mustprogress nounwind uwtable
define void @_ZN7mitsuba7ZStreamD2Ev(ptr noundef nonnull align 8 dereferenceable(65577) %0) unnamed_addr #4 align 2 personality ptr @__gxx_personality_v0 {
  %2 = alloca ptr, align 8
  store ptr %0, ptr %2, align 8
  %3 = load ptr, ptr %2, align 8
  store ptr getelementptr inbounds inrange(-16, 176) ({ [24 x ptr] }, ptr @_ZTVN7mitsuba7ZStreamE, i32 0, i32 0, i32 2), ptr %3, align 8
  %4 = load ptr, ptr %3, align 8
  %5 = getelementptr inbounds ptr, ptr %4, i64 9
  %6 = load ptr, ptr %5, align 8
  invoke void %6(ptr noundef nonnull align 8 dereferenceable(65577) %3)
          to label %7 unwind label %11

7:                                                ; preds = %1
  %8 = getelementptr inbounds %"class.mitsuba::ZStream", ptr %3, i32 0, i32 3
  call void @_ZNSt3__110unique_ptrI10z_stream_sNS_14default_deleteIS1_EEED2B8ne190000Ev(ptr noundef nonnull align 8 dereferenceable(8) %8) #17
  %9 = getelementptr inbounds %"class.mitsuba::ZStream", ptr %3, i32 0, i32 2
  call void @_ZNSt3__110unique_ptrI10z_stream_sNS_14default_deleteIS1_EEED2B8ne190000Ev(ptr noundef nonnull align 8 dereferenceable(8) %9) #17
  %10 = getelementptr inbounds %"class.mitsuba::ZStream", ptr %3, i32 0, i32 1
  call void @_ZN7mitsuba3refINS_6StreamEED2Ev(ptr noundef nonnull align 8 dereferenceable(8) %10) #17
  call void @_ZN7mitsuba6StreamD2Ev(ptr noundef nonnull align 8 dereferenceable(16) %3) #17
  ret void

11:                                               ; preds = %1
  %12 = landingpad { ptr, i32 }
          catch ptr null
  %13 = extractvalue { ptr, i32 } %12, 0
  call void @__clang_call_terminate(ptr %13) #19
  unreachable
}