; Function Attrs: mustprogress nounwind uwtable
define void @_ZN7mitsuba7ZStreamD2Ev(ptr noundef nonnull align 8 dereferenceable(65577) %0) unnamed_addr #6 align 2 personality ptr @__gxx_personality_v0 {
  store ptr getelementptr inbounds inrange(-16, 176) ({ [24 x ptr] }, ptr @_ZTVN7mitsuba7ZStreamE, i64 0, i32 0, i64 2), ptr %0, align 8
  invoke void @_ZN7mitsuba7ZStream5closeEv(ptr noundef nonnull align 8 dereferenceable(65577) %0)
          to label %2 unwind label %10

2:                                                ; preds = %1
  %3 = getelementptr inbounds i8, ptr %0, i64 32
  %4 = load ptr, ptr %3, align 8
  store ptr null, ptr %3, align 8
  %.not.i.i = icmp eq ptr %4, null
  br i1 %.not.i.i, label %_ZNSt3__110unique_ptrI10z_stream_sNS_14default_deleteIS1_EEED2B8ne190000Ev.exit, label %_ZNKSt3__114default_deleteI10z_stream_sEclB8ne190000EPS1_.exit.i.i

_ZNKSt3__114default_deleteI10z_stream_sEclB8ne190000EPS1_.exit.i.i: ; preds = %2
  tail call void @_ZdlPv(ptr noundef nonnull %4) #16
  br label %_ZNSt3__110unique_ptrI10z_stream_sNS_14default_deleteIS1_EEED2B8ne190000Ev.exit

_ZNSt3__110unique_ptrI10z_stream_sNS_14default_deleteIS1_EEED2B8ne190000Ev.exit: ; preds = %2, %_ZNKSt3__114default_deleteI10z_stream_sEclB8ne190000EPS1_.exit.i.i
  %5 = getelementptr inbounds i8, ptr %0, i64 24
  %6 = load ptr, ptr %5, align 8
  store ptr null, ptr %5, align 8
  %.not.i.i1 = icmp eq ptr %6, null
  br i1 %.not.i.i1, label %_ZNSt3__110unique_ptrI10z_stream_sNS_14default_deleteIS1_EEED2B8ne190000Ev.exit3, label %_ZNKSt3__114default_deleteI10z_stream_sEclB8ne190000EPS1_.exit.i.i2

_ZNKSt3__114default_deleteI10z_stream_sEclB8ne190000EPS1_.exit.i.i2: ; preds = %_ZNSt3__110unique_ptrI10z_stream_sNS_14default_deleteIS1_EEED2B8ne190000Ev.exit
  tail call void @_ZdlPv(ptr noundef nonnull %6) #16
  br label %_ZNSt3__110unique_ptrI10z_stream_sNS_14default_deleteIS1_EEED2B8ne190000Ev.exit3

_ZNSt3__110unique_ptrI10z_stream_sNS_14default_deleteIS1_EEED2B8ne190000Ev.exit3: ; preds = %_ZNSt3__110unique_ptrI10z_stream_sNS_14default_deleteIS1_EEED2B8ne190000Ev.exit, %_ZNKSt3__114default_deleteI10z_stream_sEclB8ne190000EPS1_.exit.i.i2
  %7 = getelementptr inbounds i8, ptr %0, i64 16
  %8 = load ptr, ptr %7, align 8
  %.not.i = icmp eq ptr %8, null
  br i1 %.not.i, label %_ZN7mitsuba3refINS_6StreamEED2Ev.exit, label %9

9:                                                ; preds = %_ZNSt3__110unique_ptrI10z_stream_sNS_14default_deleteIS1_EEED2B8ne190000Ev.exit3
  tail call void @_ZNK7mitsuba6Object7dec_refEb(ptr noundef nonnull align 8 dereferenceable(12) %8, i1 noundef zeroext true) #15
  br label %_ZN7mitsuba3refINS_6StreamEED2Ev.exit

_ZN7mitsuba3refINS_6StreamEED2Ev.exit:            ; preds = %_ZNSt3__110unique_ptrI10z_stream_sNS_14default_deleteIS1_EEED2B8ne190000Ev.exit3, %9
  tail call void @_ZN7mitsuba6StreamD2Ev(ptr noundef nonnull align 8 dereferenceable(16) %0) #15
  ret void

10:                                               ; preds = %1
  %11 = landingpad { ptr, i32 }
          catch ptr null
  %12 = extractvalue { ptr, i32 } %11, 0
  tail call void @__clang_call_terminate(ptr %12) #17
  unreachable
}